; Function Attrs: nounwind uwtable
define hidden void @X11_ClearComposition(ptr noundef captures(none) %0) local_unnamed_addr #0 {
  %2 = getelementptr inbounds nuw i8, ptr %0, i64 568
  %3 = load i32, ptr %2, align 8
  %4 = icmp sgt i32 %3, 0
  br i1 %4, label %5, label %8

5:                                                ; preds = %1
  %6 = getelementptr inbounds nuw i8, ptr %0, i64 552
  %7 = load ptr, ptr %6, align 8
  store i8 0, ptr %7, align 1
  store i32 0, ptr %2, align 8
  br label %8

8:                                                ; preds = %5, %1
  %9 = getelementptr inbounds nuw i8, ptr %0, i64 576
  %10 = load i8, ptr %9, align 8, !range !15, !noundef !16
  %11 = trunc nuw i8 %10 to i1
  br i1 %11, label %12, label %13

12:                                               ; preds = %8
  tail call void @SDL_SendEditingText(ptr noundef nonnull @.str, i32 noundef 0, i32 noundef 0) #9
  store i8 0, ptr %9, align 8
  br label %13

13:                                               ; preds = %12, %8
  ret void
}